target datalayout = "e-m:e-p270:32:32-p271:32:32-p272:64:64-i64:64-i128:128-f80:128-n8:16:32:64-S128"
target triple = "x86_64-unknown-linux-gnu"

; Function Attrs: mustprogress nounwind uwtable
define hidden noundef i32 @_ZN4cvc58internal6theory5arith2nl14transcendental20TranscendentalSolver17regionToConcavityENS0_4kind6Kind_tEi(ptr noundef nonnull align 8 dereferenceable(960) %this, i32 noundef %k, i32 noundef %region) #5 align 2 {
entry:
  %retval = alloca i32, align 4
  %this.addr = alloca ptr, align 8
  %k.addr = alloca i32, align 4
  %region.addr = alloca i32, align 4
  store ptr %this, ptr %this.addr, align 8
  store i32 %k, ptr %k.addr, align 4
  store i32 %region, ptr %region.addr, align 4
  %0 = load i32, ptr %k.addr, align 4
  %cmp = icmp eq i32 %0, 51
  br i1 %cmp, label %if.then, label %if.else

if.then:                                          ; preds = %entry
  %1 = load i32, ptr %region.addr, align 4
  %cmp2 = icmp eq i32 %1, 1
  br i1 %cmp2, label %if.then3, label %if.end

if.then3:                                         ; preds = %if.then
  store i32 1, ptr %retval, align 4
  br label %return

if.end:                                           ; preds = %if.then
  br label %if.end17

if.else:                                          ; preds = %entry
  %2 = load i32, ptr %k.addr, align 4
  %cmp4 = icmp eq i32 %2, 52
  br i1 %cmp4, label %if.then5, label %if.end16

if.then5:                                         ; preds = %if.else
  %3 = load i32, ptr %region.addr, align 4
  %cmp6 = icmp eq i32 %3, 1
  br i1 %cmp6, label %if.then8, label %lor.lhs.false

lor.lhs.false:                                    ; preds = %if.then5
  %4 = load i32, ptr %region.addr, align 4
  %cmp7 = icmp eq i32 %4, 2
  br i1 %cmp7, label %if.then8, label %if.else9

if.then8:                                         ; preds = %lor.lhs.false, %if.then5
  store i32 -1, ptr %retval, align 4
  br label %return

if.else9:                                         ; preds = %lor.lhs.false
  %5 = load i32, ptr %region.addr, align 4
  %cmp10 = icmp eq i32 %5, 3
  br i1 %cmp10, label %if.then13, label %lor.lhs.false11

lor.lhs.false11:                                  ; preds = %if.else9
  %6 = load i32, ptr %region.addr, align 4
  %cmp12 = icmp eq i32 %6, 4
  br i1 %cmp12, label %if.then13, label %if.end14

if.then13:                                        ; preds = %lor.lhs.false11, %if.else9
  store i32 1, ptr %retval, align 4
  br label %return

if.end14:                                         ; preds = %lor.lhs.false11
  br label %if.end15

if.end15:                                         ; preds = %if.end14
  br label %if.end16

if.end16:                                         ; preds = %if.end15, %if.else
  br label %if.end17

if.end17:                                         ; preds = %if.end16, %if.end
  store i32 0, ptr %retval, align 4
  br label %return

return:                                           ; preds = %if.end17, %if.then13, %if.then8, %if.then3
  %7 = load i32, ptr %retval, align 4
  ret i32 %7
}