; Function Attrs: mustprogress nofree norecurse nosync nounwind willreturn memory(none) uwtable
define hidden noundef i32 @_ZN4cvc58internal6theory5arith2nl14transcendental20TranscendentalSolver17regionToConcavityENS0_4kind6Kind_tEi(ptr nocapture noundef nonnull readnone align 8 dereferenceable(960) %this, i32 noundef %k, i32 noundef %region) local_unnamed_addr #10 align 2 {
entry:
  switch i32 %k, label %if.end17 [
    i32 51, label %if.then
    i32 52, label %if.then5
  ]

if.then:                                          ; preds = %entry
  %cmp2 = icmp eq i32 %region, 1
  br i1 %cmp2, label %return, label %if.end17

if.then5:                                         ; preds = %entry
  %0 = add i32 %region, -1
  %or.cond = icmp ult i32 %0, 2
  br i1 %or.cond, label %return, label %if.else9

if.else9:                                         ; preds = %if.then5
  %1 = add i32 %region, -3
  %or.cond1 = icmp ult i32 %1, 2
  br i1 %or.cond1, label %return, label %if.end17

if.end17:                                         ; preds = %entry, %if.else9, %if.then
  br label %return

return:                                           ; preds = %if.else9, %if.then5, %if.then, %if.end17
  %retval.0 = phi i32 [ 0, %if.end17 ], [ 1, %if.then ], [ -1, %if.then5 ], [ 1, %if.else9 ]
  ret i32 %retval.0
}